; Function Attrs: mustprogress uwtable
define hidden void @_ZN3sat6configC2ERK10params_ref(ptr noundef nonnull align 8 dereferenceable(409) initializes((112, 120), (265, 266), (336, 344)) %0, ptr noundef nonnull align 8 dereferenceable(8) %1) unnamed_addr #3 align 2 {
  %3 = getelementptr inbounds nuw i8, ptr %0, i64 112
  store ptr null, ptr %3, align 8, !tbaa !3
  %4 = getelementptr inbounds nuw i8, ptr %0, i64 336
  store ptr null, ptr %4, align 8, !tbaa !3
  %5 = getelementptr inbounds nuw i8, ptr %0, i64 265
  store i8 0, ptr %5, align 1, !tbaa !9
  tail call void @_ZN3sat6config11updt_paramsERK10params_ref(ptr noundef nonnull align 8 dereferenceable(409) %0, ptr noundef nonnull align 8 dereferenceable(8) %1)
  ret void
}